; Function Attrs: mustprogress uwtable
define hidden void @_ZNK4cvc58internal4prop11TheoryProxy37getLearnedZeroLevelLiteralsForRestartEv(ptr dead_on_unwind noalias writable sret(%"class.std::vector.453") align 8 %0, ptr noundef nonnull readonly align 8 captures(none) dereferenceable(521) %1) local_unnamed_addr #4 align 2 {
  %3 = getelementptr inbounds nuw i8, ptr %1, i64 448
  %4 = load ptr, ptr %3, align 8, !tbaa !336
  %.not = icmp eq ptr %4, null
  br i1 %.not, label %6, label %5

5:                                                ; preds = %2
  tail call void @_ZNK4cvc58internal4prop16ZeroLevelLearner37getLearnedZeroLevelLiteralsForRestartEv(ptr dead_on_unwind writable sret(%"class.std::vector.453") align 8 %0, ptr noundef nonnull align 8 dereferenceable(1320) %4)
  br label %7

6:                                                ; preds = %2
  tail call void @llvm.memset.p0.i64(ptr noundef nonnull align 8 dereferenceable(24) %0, i8 0, i64 24, i1 false)
  br label %7

7:                                                ; preds = %6, %5
  ret void
}